target datalayout = "e-m:e-p270:32:32-p271:32:32-p272:64:64-i64:64-i128:128-f80:128-n8:16:32:64-S128"
target triple = "x86_64-pc-linux-gnu"

%struct.expert_field = type { i32, i32 }
%struct.except_id_t = type { i64, i64 }
%struct.except_stacknode = type { ptr, i32, %union.anon.0 }
%union.anon.0 = type { ptr }
%struct.except_catch = type { ptr, i64, %struct.except_t, [1 x %struct.__jmp_buf_tag] }
%struct.except_t = type { %struct.except_id_t, ptr, ptr }
%struct.__jmp_buf_tag = type { [8 x i64], i32, %struct.__sigset_t }
%struct.__sigset_t = type { [16 x i64] }

@hf_ieee802154_ie_unknown_content_payload = internal global i32 0, align 4
@hf_ieee802154_payload_ies = internal global i32 0, align 4
@hf_ieee802154_pie_unsupported = internal global i32 0, align 4
@hf_ieee802154_pie_termination = internal global i32 0, align 4
@ett_ieee802154_payload_ie = internal global i32 0, align 4
@ett_ieee802154_pie_termination = internal global i32 0, align 4
@ett_ieee802154_pie_unsupported = internal global i32 0, align 4
@ei_ieee802154_ie_unsupported_id = internal global %struct.expert_field zeroinitializer, align 4
@ei_ieee802154_ie_unknown_extra_content_payload = internal global %struct.expert_field zeroinitializer, align 4
@payload_ie_dissector_table = internal global ptr null, align 8
@dissect_ieee802154_payload_ie.catch_spec = internal constant [1 x %struct.except_id_t] [%struct.except_id_t { i64 1, i64 0 }], align 16

; Function Attrs: null_pointer_is_valid sspstrong uwtable
define internal i32 @dissect_ieee802154_payload_ie(ptr noundef %0, ptr noundef %1, ptr noundef %2, i32 noundef %3, ptr noundef %4) #0 {
  %6 = alloca ptr, align 8
  %7 = alloca ptr, align 8
  %8 = alloca ptr, align 8
  %9 = alloca i32, align 4
  %10 = alloca ptr, align 8
  %11 = alloca i32, align 4
  %12 = alloca ptr, align 8
  %13 = alloca ptr, align 8
  %14 = alloca i32, align 4
  %15 = alloca i16, align 2
  %16 = alloca i16, align 2
  %17 = alloca i16, align 2
  %18 = alloca ptr, align 8
  %19 = alloca ptr, align 8
  %20 = alloca i32, align 4
  %21 = alloca %struct.except_stacknode, align 8
  %22 = alloca %struct.except_catch, align 8
  %23 = alloca ptr, align 8
  %24 = alloca i32, align 4
  store ptr %0, ptr %6, align 8
  store ptr %1, ptr %7, align 8
  store ptr %2, ptr %8, align 8
  store i32 %3, ptr %9, align 4
  store ptr %4, ptr %10, align 8
  call void @llvm.lifetime.start.p0(i64 4, ptr %11) #17
  %25 = load i32, ptr %9, align 4
  store volatile i32 %25, ptr %11, align 4
  call void @llvm.lifetime.start.p0(i64 8, ptr %12) #17
  %26 = load ptr, ptr %8, align 8
  %27 = load i32, ptr @hf_ieee802154_payload_ies, align 4
  %28 = load ptr, ptr %6, align 8
  %29 = load volatile i32, ptr %11, align 4
  %30 = call ptr @proto_tree_add_item(ptr noundef %26, i32 noundef %27, ptr noundef %28, i32 noundef %29, i32 noundef -1, i32 noundef 0)
  store ptr %30, ptr %12, align 8
  call void @llvm.lifetime.start.p0(i64 8, ptr %13) #17
  %31 = load ptr, ptr %12, align 8
  %32 = load i32, ptr @ett_ieee802154_payload_ie, align 4
  %33 = call ptr @proto_item_add_subtree(ptr noundef %31, i32 noundef %32)
  store ptr %33, ptr %13, align 8
  br label %34

34:                                               ; preds = %188, %5
  call void @llvm.lifetime.start.p0(i64 4, ptr %14) #17
  store volatile i32 0, ptr %14, align 4
  call void @llvm.lifetime.start.p0(i64 2, ptr %15) #17
  %35 = load ptr, ptr %6, align 8
  %36 = load volatile i32, ptr %11, align 4
  %37 = call zeroext i16 @tvb_get_letohs(ptr noundef %35, i32 noundef %36)
  store i16 %37, ptr %15, align 2
  call void @llvm.lifetime.start.p0(i64 2, ptr %16) #17
  %38 = load i16, ptr %15, align 2
  %39 = zext i16 %38 to i32
  %40 = and i32 %39, 30720
  %41 = ashr i32 %40, 11
  %42 = trunc i32 %41 to i16
  store i16 %42, ptr %16, align 2
  call void @llvm.lifetime.start.p0(i64 2, ptr %17) #17
  %43 = load i16, ptr %15, align 2
  %44 = zext i16 %43 to i32
  %45 = and i32 %44, 2047
  %46 = trunc i32 %45 to i16
  store volatile i16 %46, ptr %17, align 2
  call void @llvm.lifetime.start.p0(i64 8, ptr %18) #17
  %47 = load ptr, ptr %6, align 8
  %48 = load volatile i32, ptr %11, align 4
  %49 = load volatile i16, ptr %17, align 2
  %50 = zext i16 %49 to i32
  %51 = add i32 2, %50
  %52 = call ptr @tvb_new_subset_length(ptr noundef %47, i32 noundef %48, i32 noundef %51)
  store volatile ptr %52, ptr %18, align 8
  %53 = load i16, ptr %16, align 2
  %54 = zext i16 %53 to i32
  %55 = icmp eq i32 %54, 15
  br i1 %55, label %56, label %62

56:                                               ; preds = %34
  %57 = load volatile ptr, ptr %18, align 8
  %58 = load ptr, ptr %13, align 8
  %59 = load i32, ptr @hf_ieee802154_pie_termination, align 4
  %60 = load i32, ptr @ett_ieee802154_pie_termination, align 4
  %61 = call ptr @ieee802154_create_pie_tree(ptr noundef %57, ptr noundef %58, i32 noundef %59, i32 noundef %60)
  store volatile i32 2, ptr %14, align 4
  br label %154

62:                                               ; preds = %34
  call void @llvm.lifetime.start.p0(i64 8, ptr %19) #17
  call void @llvm.lifetime.start.p0(i64 4, ptr %20) #17
  store volatile i32 0, ptr %20, align 4
  call void @llvm.lifetime.start.p0(i64 24, ptr %21) #17
  call void @llvm.lifetime.start.p0(i64 248, ptr %22) #17
  call void @except_setup_try(ptr noundef %21, ptr noundef %22, ptr noundef @dissect_ieee802154_payload_ie.catch_spec, i64 noundef 1)
  %63 = getelementptr inbounds nuw %struct.except_catch, ptr %22, i32 0, i32 3
  %64 = getelementptr inbounds [1 x %struct.__jmp_buf_tag], ptr %63, i64 0, i64 0
  %65 = call i32 @_setjmp(ptr noundef %64) #19
  %66 = icmp ne i32 %65, 0
  br i1 %66, label %67, label %69

67:                                               ; preds = %62
  %68 = getelementptr inbounds nuw %struct.except_catch, ptr %22, i32 0, i32 2
  store volatile ptr %68, ptr %19, align 8
  br label %70

69:                                               ; preds = %62
  store volatile ptr null, ptr %19, align 8
  br label %70

70:                                               ; preds = %69, %67
  %71 = load volatile i32, ptr %20, align 4
  %72 = and i32 %71, 1
  %73 = icmp ne i32 %72, 0
  br i1 %73, label %74, label %77

74:                                               ; preds = %70
  %75 = load volatile i32, ptr %20, align 4
  %76 = or i32 %75, 2
  store volatile i32 %76, ptr %20, align 4
  br label %77

77:                                               ; preds = %74, %70
  %78 = load volatile i32, ptr %20, align 4
  %79 = and i32 %78, -2
  store volatile i32 %79, ptr %20, align 4
  %80 = load volatile i32, ptr %20, align 4
  %81 = icmp eq i32 %80, 0
  br i1 %81, label %82, label %116

82:                                               ; preds = %77
  %83 = load volatile ptr, ptr %19, align 8
  %84 = icmp eq ptr %83, null
  br i1 %84, label %85, label %116

85:                                               ; preds = %82
  %86 = load ptr, ptr @payload_ie_dissector_table, align 8
  %87 = load i16, ptr %16, align 2
  %88 = zext i16 %87 to i32
  %89 = load volatile ptr, ptr %18, align 8
  %90 = load ptr, ptr %7, align 8
  %91 = load ptr, ptr %13, align 8
  %92 = load ptr, ptr %10, align 8
  %93 = call i32 @dissector_try_uint_with_data(ptr noundef %86, i32 noundef %88, ptr noundef %89, ptr noundef %90, ptr noundef %91, i1 noundef zeroext false, ptr noundef %92)
  store volatile i32 %93, ptr %14, align 4
  %94 = load volatile i32, ptr %14, align 4
  %95 = icmp eq i32 %94, 0
  br i1 %95, label %96, label %115

96:                                               ; preds = %85
  call void @llvm.lifetime.start.p0(i64 8, ptr %23) #17
  %97 = load volatile ptr, ptr %18, align 8
  %98 = load ptr, ptr %13, align 8
  %99 = load i32, ptr @hf_ieee802154_pie_unsupported, align 4
  %100 = load i32, ptr @ett_ieee802154_pie_unsupported, align 4
  %101 = call ptr @ieee802154_create_pie_tree(ptr noundef %97, ptr noundef %98, i32 noundef %99, i32 noundef %100)
  store ptr %101, ptr %23, align 8
  %102 = load ptr, ptr %23, align 8
  %103 = load i32, ptr @hf_ieee802154_ie_unknown_content_payload, align 4
  %104 = load volatile ptr, ptr %18, align 8
  %105 = load volatile i16, ptr %17, align 2
  %106 = zext i16 %105 to i32
  %107 = call ptr @proto_tree_add_item(ptr noundef %102, i32 noundef %103, ptr noundef %104, i32 noundef 2, i32 noundef %106, i32 noundef 0)
  %108 = load volatile i16, ptr %17, align 2
  %109 = zext i16 %108 to i32
  %110 = add i32 2, %109
  store volatile i32 %110, ptr %14, align 4
  %111 = load ptr, ptr %7, align 8
  %112 = load ptr, ptr %23, align 8
  %113 = call ptr @proto_tree_get_parent(ptr noundef %112)
  %114 = call ptr @expert_add_info(ptr noundef %111, ptr noundef %113, ptr noundef @ei_ieee802154_ie_unsupported_id)
  call void @llvm.lifetime.end.p0(i64 8, ptr %23) #17
  br label %115

115:                                              ; preds = %96, %85
  br label %116

116:                                              ; preds = %115, %82, %77
  %117 = load volatile i32, ptr %20, align 4
  %118 = icmp eq i32 %117, 0
  br i1 %118, label %119, label %140

119:                                              ; preds = %116
  %120 = load volatile ptr, ptr %19, align 8
  %121 = icmp ne ptr %120, null
  br i1 %121, label %122, label %140

122:                                              ; preds = %119
  %123 = load volatile i32, ptr %20, align 4
  %124 = or i32 %123, 1
  store volatile i32 %124, ptr %20, align 4
  %125 = icmp ne i32 %124, 0
  br i1 %125, label %126, label %140

126:                                              ; preds = %122
  %127 = load ptr, ptr %6, align 8
  %128 = load ptr, ptr %7, align 8
  %129 = load ptr, ptr %13, align 8
  %130 = load volatile ptr, ptr %19, align 8
  %131 = getelementptr inbounds nuw %struct.except_t, ptr %130, i32 0, i32 0
  %132 = getelementptr inbounds nuw %struct.except_id_t, ptr %131, i32 0, i32 1
  %133 = load volatile i64, ptr %132, align 8
  %134 = load volatile ptr, ptr %19, align 8
  %135 = getelementptr inbounds nuw %struct.except_t, ptr %134, i32 0, i32 1
  %136 = load volatile ptr, ptr %135, align 8
  call void @show_exception(ptr noundef %127, ptr noundef %128, ptr noundef %129, i64 noundef %133, ptr noundef %136)
  %137 = load volatile i16, ptr %17, align 2
  %138 = zext i16 %137 to i32
  %139 = add i32 2, %138
  store volatile i32 %139, ptr %14, align 4
  br label %140

140:                                              ; preds = %126, %122, %119, %116
  %141 = load volatile i32, ptr %20, align 4
  %142 = and i32 %141, 1
  %143 = icmp ne i32 %142, 0
  br i1 %143, label %149, label %144

144:                                              ; preds = %140
  %145 = load volatile ptr, ptr %19, align 8
  %146 = icmp ne ptr %145, null
  br i1 %146, label %147, label %149

147:                                              ; preds = %144
  %148 = load volatile ptr, ptr %19, align 8
  call void @except_rethrow(ptr noundef %148) #16
  unreachable

149:                                              ; preds = %144, %140
  %150 = getelementptr inbounds nuw %struct.except_catch, ptr %22, i32 0, i32 2
  %151 = getelementptr inbounds nuw %struct.except_t, ptr %150, i32 0, i32 2
  %152 = load volatile ptr, ptr %151, align 8
  call void @except_free(ptr noundef %152)
  %153 = call ptr @except_pop()
  call void @llvm.lifetime.end.p0(i64 248, ptr %22) #17
  call void @llvm.lifetime.end.p0(i64 24, ptr %21) #17
  call void @llvm.lifetime.end.p0(i64 4, ptr %20) #17
  call void @llvm.lifetime.end.p0(i64 8, ptr %19) #17
  br label %154

154:                                              ; preds = %149, %56
  %155 = load volatile i32, ptr %14, align 4
  %156 = load volatile i16, ptr %17, align 2
  %157 = zext i16 %156 to i32
  %158 = add i32 2, %157
  %159 = icmp slt i32 %155, %158
  br i1 %159, label %160, label %174

160:                                              ; preds = %154
  %161 = load ptr, ptr %13, align 8
  %162 = load i32, ptr @hf_ieee802154_ie_unknown_content_payload, align 4
  %163 = load volatile ptr, ptr %18, align 8
  %164 = load volatile i32, ptr %14, align 4
  %165 = load volatile i16, ptr %17, align 2
  %166 = zext i16 %165 to i32
  %167 = add i32 2, %166
  %168 = load volatile i32, ptr %14, align 4
  %169 = sub i32 %167, %168
  %170 = call ptr @proto_tree_add_item(ptr noundef %161, i32 noundef %162, ptr noundef %163, i32 noundef %164, i32 noundef %169, i32 noundef 0)
  %171 = load ptr, ptr %7, align 8
  %172 = load ptr, ptr %12, align 8
  %173 = call ptr @expert_add_info(ptr noundef %171, ptr noundef %172, ptr noundef @ei_ieee802154_ie_unknown_extra_content_payload)
  br label %174

174:                                              ; preds = %160, %154
  %175 = load volatile i16, ptr %17, align 2
  %176 = zext i16 %175 to i32
  %177 = add i32 2, %176
  %178 = load volatile i32, ptr %11, align 4
  %179 = add i32 %178, %177
  store volatile i32 %179, ptr %11, align 4
  %180 = load i16, ptr %16, align 2
  %181 = zext i16 %180 to i32
  %182 = icmp eq i32 %181, 15
  br i1 %182, label %183, label %184

183:                                              ; preds = %174
  store i32 2, ptr %24, align 4
  br label %185

184:                                              ; preds = %174
  store i32 0, ptr %24, align 4
  br label %185

185:                                              ; preds = %184, %183
  call void @llvm.lifetime.end.p0(i64 8, ptr %18) #17
  call void @llvm.lifetime.end.p0(i64 2, ptr %17) #17
  call void @llvm.lifetime.end.p0(i64 2, ptr %16) #17
  call void @llvm.lifetime.end.p0(i64 2, ptr %15) #17
  call void @llvm.lifetime.end.p0(i64 4, ptr %14) #17
  %186 = load i32, ptr %24, align 4
  switch i32 %186, label %201 [
    i32 0, label %187
    i32 2, label %193
  ]

187:                                              ; preds = %185
  br label %188

188:                                              ; preds = %187
  %189 = load ptr, ptr %6, align 8
  %190 = load volatile i32, ptr %11, align 4
  %191 = call i32 @tvb_reported_length_remaining(ptr noundef %189, i32 noundef %190)
  %192 = icmp sgt i32 %191, 1
  br i1 %192, label %34, label %193, !llvm.loop !15

193:                                              ; preds = %188, %185
  %194 = load ptr, ptr %12, align 8
  %195 = load volatile i32, ptr %11, align 4
  %196 = load i32, ptr %9, align 4
  %197 = sub i32 %195, %196
  call void @proto_item_set_len(ptr noundef %194, i32 noundef %197)
  %198 = load volatile i32, ptr %11, align 4
  %199 = load i32, ptr %9, align 4
  %200 = sub i32 %198, %199
  store i32 1, ptr %24, align 4
  call void @llvm.lifetime.end.p0(i64 8, ptr %13) #17
  call void @llvm.lifetime.end.p0(i64 8, ptr %12) #17
  call void @llvm.lifetime.end.p0(i64 4, ptr %11) #17
  ret i32 %200

201:                                              ; preds = %185
  unreachable
}