; Function Attrs: null_pointer_is_valid sspstrong uwtable
define internal fastcc i32 @dissect_ieee802154_payload_ie(ptr noundef %0, ptr noundef %1, ptr noundef %2, ptr noundef %3) unnamed_addr #0 {
  %5 = alloca i32, align 4
  %6 = alloca i32, align 4
  %7 = alloca i16, align 2
  %8 = alloca ptr, align 8
  %9 = alloca ptr, align 8
  %10 = alloca i32, align 4
  %11 = alloca %struct.except_stacknode, align 8
  %12 = alloca %struct.except_catch, align 8
  call void @llvm.lifetime.start.p0(i64 4, ptr nonnull %5)
  store volatile i32 0, ptr %5, align 4
  %13 = load i32, ptr @hf_ieee802154_payload_ies, align 4
  %.0..0..0..0.44 = load volatile i32, ptr %5, align 4
  %14 = call ptr @proto_tree_add_item(ptr noundef %2, i32 noundef %13, ptr noundef %0, i32 noundef %.0..0..0..0.44, i32 noundef -1, i32 noundef 0)
  %15 = load i32, ptr @ett_ieee802154_payload_ie, align 4
  %16 = call ptr @proto_item_add_subtree(ptr noundef %14, i32 noundef %15)
  %17 = getelementptr inbounds nuw i8, ptr %12, i64 48
  %18 = getelementptr inbounds nuw i8, ptr %12, i64 16
  %19 = getelementptr inbounds nuw i8, ptr %12, i64 40
  br label %20

20:                                               ; preds = %92, %4
  call void @llvm.lifetime.start.p0(i64 4, ptr nonnull %6)
  store volatile i32 0, ptr %6, align 4
  %.0..0..0..0.45 = load volatile i32, ptr %5, align 4
  %21 = call zeroext i16 @tvb_get_letohs(ptr noundef %0, i32 noundef %.0..0..0..0.45)
  %22 = lshr i16 %21, 11
  %23 = and i16 %22, 15
  call void @llvm.lifetime.start.p0(i64 2, ptr nonnull %7)
  %24 = and i16 %21, 2047
  store volatile i16 %24, ptr %7, align 2
  call void @llvm.lifetime.start.p0(i64 8, ptr nonnull %8)
  %.0..0..0..0.46 = load volatile i32, ptr %5, align 4
  %.0..0..0..0.20 = load volatile i16, ptr %7, align 2
  %25 = zext i16 %.0..0..0..0.20 to i32
  %26 = add nuw nsw i32 %25, 2
  %27 = call ptr @tvb_new_subset_length(ptr noundef %0, i32 noundef %.0..0..0..0.46, i32 noundef %26)
  store volatile ptr %27, ptr %8, align 8
  %28 = zext nneg i16 %23 to i32
  %29 = icmp eq i16 %23, 15
  br i1 %29, label %30, label %34

30:                                               ; preds = %20
  %.0..0..0..0.15 = load volatile ptr, ptr %8, align 8
  %31 = load i32, ptr @hf_ieee802154_pie_termination, align 4
  %32 = load i32, ptr @ett_ieee802154_pie_termination, align 4
  %33 = call ptr @ieee802154_create_pie_tree(ptr noundef %.0..0..0..0.15, ptr noundef %16, i32 noundef %31, i32 noundef %32)
  store volatile i32 2, ptr %6, align 4
  br label %77

34:                                               ; preds = %20
  call void @llvm.lifetime.start.p0(i64 8, ptr nonnull %9)
  call void @llvm.lifetime.start.p0(i64 4, ptr nonnull %10)
  store volatile i32 0, ptr %10, align 4
  call void @llvm.lifetime.start.p0(i64 24, ptr nonnull %11) #19
  call void @llvm.lifetime.start.p0(i64 248, ptr nonnull %12) #19
  call void @except_setup_try(ptr noundef nonnull %11, ptr noundef nonnull %12, ptr noundef nonnull @dissect_ieee802154_payload_ie.catch_spec, i64 noundef 1)
  %35 = call i32 @_setjmp(ptr noundef nonnull %17) #21
  %.not = icmp eq i32 %35, 0
  %. = select i1 %.not, ptr null, ptr %18
  store volatile ptr %., ptr %9, align 8
  %.0..0..0..0.2 = load volatile i32, ptr %10, align 4
  %36 = and i32 %.0..0..0..0.2, 1
  %.not66 = icmp eq i32 %36, 0
  br i1 %.not66, label %39, label %37

37:                                               ; preds = %34
  %.0..0..0..0.3 = load volatile i32, ptr %10, align 4
  %38 = or i32 %.0..0..0..0.3, 2
  store volatile i32 %38, ptr %10, align 4
  br label %39

39:                                               ; preds = %37, %34
  %.0..0..0..0.4 = load volatile i32, ptr %10, align 4
  %40 = and i32 %.0..0..0..0.4, -2
  store volatile i32 %40, ptr %10, align 4
  %.0..0..0..0.5 = load volatile i32, ptr %10, align 4
  %41 = icmp eq i32 %.0..0..0..0.5, 0
  br i1 %41, label %42, label %59

42:                                               ; preds = %39
  %.0..0..0..0.9 = load volatile ptr, ptr %9, align 8
  %43 = icmp eq ptr %.0..0..0..0.9, null
  br i1 %43, label %44, label %59

44:                                               ; preds = %42
  %45 = load ptr, ptr @payload_ie_dissector_table, align 8
  %.0..0..0..0.16 = load volatile ptr, ptr %8, align 8
  %46 = call i32 @dissector_try_uint_with_data(ptr noundef %45, i32 noundef %28, ptr noundef %.0..0..0..0.16, ptr noundef %1, ptr noundef %16, i1 noundef zeroext false, ptr noundef %3)
  store volatile i32 %46, ptr %6, align 4
  %.0..0..0..0.32 = load volatile i32, ptr %6, align 4
  %47 = icmp eq i32 %.0..0..0..0.32, 0
  br i1 %47, label %48, label %59

48:                                               ; preds = %44
  %.0..0..0..0.17 = load volatile ptr, ptr %8, align 8
  %49 = load i32, ptr @hf_ieee802154_pie_unsupported, align 4
  %50 = load i32, ptr @ett_ieee802154_pie_unsupported, align 4
  %51 = call ptr @ieee802154_create_pie_tree(ptr noundef %.0..0..0..0.17, ptr noundef %16, i32 noundef %49, i32 noundef %50)
  %52 = load i32, ptr @hf_ieee802154_ie_unknown_content_payload, align 4
  %.0..0..0..0.18 = load volatile ptr, ptr %8, align 8
  %.0..0..0..0.21 = load volatile i16, ptr %7, align 2
  %53 = zext i16 %.0..0..0..0.21 to i32
  %54 = call ptr @proto_tree_add_item(ptr noundef %51, i32 noundef %52, ptr noundef %.0..0..0..0.18, i32 noundef 2, i32 noundef %53, i32 noundef 0)
  %.0..0..0..0.22 = load volatile i16, ptr %7, align 2
  %55 = zext i16 %.0..0..0..0.22 to i32
  %56 = add nuw nsw i32 %55, 2
  store volatile i32 %56, ptr %6, align 4
  %57 = call ptr @proto_tree_get_parent(ptr noundef %51)
  %58 = call ptr @expert_add_info(ptr noundef %1, ptr noundef %57, ptr noundef nonnull @ei_ieee802154_ie_unsupported_id)
  br label %59

59:                                               ; preds = %44, %48, %42, %39
  %.0..0..0..0.6 = load volatile i32, ptr %10, align 4
  %60 = icmp eq i32 %.0..0..0..0.6, 0
  br i1 %60, label %61, label %70

61:                                               ; preds = %59
  %.0..0..0..0.10 = load volatile ptr, ptr %9, align 8
  %.not67 = icmp eq ptr %.0..0..0..0.10, null
  br i1 %.not67, label %70, label %62

62:                                               ; preds = %61
  %.0..0..0..0.7 = load volatile i32, ptr %10, align 4
  %63 = or i32 %.0..0..0..0.7, 1
  store volatile i32 %63, ptr %10, align 4
  %.0..0..0..0.11 = load volatile ptr, ptr %9, align 8
  %64 = getelementptr inbounds nuw i8, ptr %.0..0..0..0.11, i64 8
  %65 = load volatile i64, ptr %64, align 8
  %.0..0..0..0.12 = load volatile ptr, ptr %9, align 8
  %66 = getelementptr inbounds nuw i8, ptr %.0..0..0..0.12, i64 16
  %67 = load volatile ptr, ptr %66, align 8
  call void @show_exception(ptr noundef %0, ptr noundef %1, ptr noundef %16, i64 noundef %65, ptr noundef %67)
  %.0..0..0..0.23 = load volatile i16, ptr %7, align 2
  %68 = zext i16 %.0..0..0..0.23 to i32
  %69 = add nuw nsw i32 %68, 2
  store volatile i32 %69, ptr %6, align 4
  br label %70

70:                                               ; preds = %62, %61, %59
  %.0..0..0..0.8 = load volatile i32, ptr %10, align 4
  %71 = and i32 %.0..0..0..0.8, 1
  %.not68 = icmp eq i32 %71, 0
  br i1 %.not68, label %72, label %74

72:                                               ; preds = %70
  %.0..0..0..0.13 = load volatile ptr, ptr %9, align 8
  %.not69 = icmp eq ptr %.0..0..0..0.13, null
  br i1 %.not69, label %74, label %73

73:                                               ; preds = %72
  %.0..0..0..0.14 = load volatile ptr, ptr %9, align 8
  call void @except_rethrow(ptr noundef %.0..0..0..0.14) #18
  unreachable

74:                                               ; preds = %72, %70
  %75 = load volatile ptr, ptr %19, align 8
  call void @except_free(ptr noundef %75)
  %76 = call ptr @except_pop()
  call void @llvm.lifetime.end.p0(i64 248, ptr nonnull %12) #19
  call void @llvm.lifetime.end.p0(i64 24, ptr nonnull %11) #19
  call void @llvm.lifetime.end.p0(i64 4, ptr nonnull %10)
  call void @llvm.lifetime.end.p0(i64 8, ptr nonnull %9)
  br label %77

77:                                               ; preds = %74, %30
  %.0..0..0..0.33 = load volatile i32, ptr %6, align 4
  %.0..0..0..0.24 = load volatile i16, ptr %7, align 2
  %78 = zext i16 %.0..0..0..0.24 to i32
  %79 = add nuw nsw i32 %78, 2
  %80 = icmp slt i32 %.0..0..0..0.33, %79
  br i1 %80, label %81, label %88

81:                                               ; preds = %77
  %82 = load i32, ptr @hf_ieee802154_ie_unknown_content_payload, align 4
  %.0..0..0..0.19 = load volatile ptr, ptr %8, align 8
  %.0..0..0..0.34 = load volatile i32, ptr %6, align 4
  %.0..0..0..0.25 = load volatile i16, ptr %7, align 2
  %83 = zext i16 %.0..0..0..0.25 to i32
  %84 = add nuw nsw i32 %83, 2
  %.0..0..0..0.35 = load volatile i32, ptr %6, align 4
  %85 = sub i32 %84, %.0..0..0..0.35
  %86 = call ptr @proto_tree_add_item(ptr noundef %16, i32 noundef %82, ptr noundef %.0..0..0..0.19, i32 noundef %.0..0..0..0.34, i32 noundef %85, i32 noundef 0)
  %87 = call ptr @expert_add_info(ptr noundef %1, ptr noundef %14, ptr noundef nonnull @ei_ieee802154_ie_unknown_extra_content_payload)
  br label %88

88:                                               ; preds = %81, %77
  %.0..0..0..0.26 = load volatile i16, ptr %7, align 2
  %89 = zext i16 %.0..0..0..0.26 to i32
  %90 = add nuw nsw i32 %89, 2
  %.0..0..0..0.47 = load volatile i32, ptr %5, align 4
  %91 = add i32 %90, %.0..0..0..0.47
  store volatile i32 %91, ptr %5, align 4
  call void @llvm.lifetime.end.p0(i64 8, ptr nonnull %8)
  call void @llvm.lifetime.end.p0(i64 2, ptr nonnull %7)
  call void @llvm.lifetime.end.p0(i64 4, ptr nonnull %6)
  br i1 %29, label %95, label %92

92:                                               ; preds = %88
  %.0..0..0..0.48 = load volatile i32, ptr %5, align 4
  %93 = call i32 @tvb_reported_length_remaining(ptr noundef %0, i32 noundef %.0..0..0..0.48)
  %94 = icmp sgt i32 %93, 1
  br i1 %94, label %20, label %95, !llvm.loop !15

95:                                               ; preds = %88, %92
  %.0..0..0..0.49 = load volatile i32, ptr %5, align 4
  call void @proto_item_set_len(ptr noundef %14, i32 noundef %.0..0..0..0.49)
  %.0..0..0..0.50 = load volatile i32, ptr %5, align 4
  call void @llvm.lifetime.end.p0(i64 4, ptr nonnull %5)
  ret i32 %.0..0..0..0.50
}